target datalayout = "e-m:e-p270:32:32-p271:32:32-p272:64:64-i64:64-i128:128-f80:128-n8:16:32:64-S128"
target triple = "x86_64-pc-linux-gnu"

@ett_ieee802154_pendaddr = internal global i32 0, align 4
@.str.42 = private unnamed_addr constant [40 x i8] c"Pending Addresses: %i Short and %i Long\00", align 1
@hf_ieee802154_pending16 = internal global i32 0, align 4
@hf_ieee802154_pending64 = internal global i32 0, align 4

; Function Attrs: null_pointer_is_valid sspstrong uwtable
define hidden void @dissect_ieee802154_pendaddr(ptr noundef %0, ptr noundef %1, ptr noundef %2, ptr noundef %3) #0 {
  %5 = alloca ptr, align 8
  %6 = alloca ptr, align 8
  %7 = alloca ptr, align 8
  %8 = alloca ptr, align 8
  %9 = alloca ptr, align 8
  %10 = alloca i8, align 1
  %11 = alloca i8, align 1
  %12 = alloca i8, align 1
  %13 = alloca i32, align 4
  %14 = alloca i16, align 2
  store ptr %0, ptr %5, align 8
  store ptr %1, ptr %6, align 8
  store ptr %2, ptr %7, align 8
  store ptr %3, ptr %8, align 8
  call void @llvm.lifetime.start.p0(i64 8, ptr %9) #17
  call void @llvm.lifetime.start.p0(i64 1, ptr %10) #17
  call void @llvm.lifetime.start.p0(i64 1, ptr %11) #17
  call void @llvm.lifetime.start.p0(i64 1, ptr %12) #17
  call void @llvm.lifetime.start.p0(i64 4, ptr %13) #17
  %15 = load ptr, ptr %5, align 8
  %16 = load ptr, ptr %8, align 8
  %17 = load i32, ptr %16, align 4
  %18 = call zeroext i8 @tvb_get_uint8(ptr noundef %15, i32 noundef %17)
  store i8 %18, ptr %10, align 1
  %19 = load i8, ptr %10, align 1
  %20 = zext i8 %19 to i32
  %21 = and i32 %20, 7
  %22 = trunc i32 %21 to i8
  store i8 %22, ptr %11, align 1
  %23 = load i8, ptr %10, align 1
  %24 = zext i8 %23 to i32
  %25 = and i32 %24, 112
  %26 = ashr i32 %25, 4
  %27 = trunc i32 %26 to i8
  store i8 %27, ptr %12, align 1
  %28 = load ptr, ptr %7, align 8
  %29 = load ptr, ptr %5, align 8
  %30 = load ptr, ptr %8, align 8
  %31 = load i32, ptr %30, align 4
  %32 = load i8, ptr %11, align 1
  %33 = zext i8 %32 to i32
  %34 = mul i32 2, %33
  %35 = add i32 1, %34
  %36 = load i8, ptr %12, align 1
  %37 = zext i8 %36 to i32
  %38 = mul i32 8, %37
  %39 = add i32 %35, %38
  %40 = load i32, ptr @ett_ieee802154_pendaddr, align 4
  %41 = load i8, ptr %11, align 1
  %42 = zext i8 %41 to i32
  %43 = load i8, ptr %12, align 1
  %44 = zext i8 %43 to i32
  %45 = call ptr (ptr, ptr, i32, i32, i32, ptr, ptr, ...) @proto_tree_add_subtree_format(ptr noundef %28, ptr noundef %29, i32 noundef %31, i32 noundef %39, i32 noundef %40, ptr noundef null, ptr noundef @.str.42, i32 noundef %42, i32 noundef %44)
  store ptr %45, ptr %9, align 8
  %46 = load ptr, ptr %8, align 8
  %47 = load i32, ptr %46, align 4
  %48 = add i32 %47, 1
  store i32 %48, ptr %46, align 4
  store i32 0, ptr %13, align 4
  br label %49

49:                                               ; preds = %70, %4
  %50 = load i32, ptr %13, align 4
  %51 = load i8, ptr %11, align 1
  %52 = zext i8 %51 to i32
  %53 = icmp slt i32 %50, %52
  br i1 %53, label %54, label %73

54:                                               ; preds = %49
  call void @llvm.lifetime.start.p0(i64 2, ptr %14) #17
  %55 = load ptr, ptr %5, align 8
  %56 = load ptr, ptr %8, align 8
  %57 = load i32, ptr %56, align 4
  %58 = call zeroext i16 @tvb_get_letohs(ptr noundef %55, i32 noundef %57)
  store i16 %58, ptr %14, align 2
  %59 = load ptr, ptr %9, align 8
  %60 = load i32, ptr @hf_ieee802154_pending16, align 4
  %61 = load ptr, ptr %5, align 8
  %62 = load ptr, ptr %8, align 8
  %63 = load i32, ptr %62, align 4
  %64 = load i16, ptr %14, align 2
  %65 = zext i16 %64 to i32
  %66 = call ptr @proto_tree_add_uint(ptr noundef %59, i32 noundef %60, ptr noundef %61, i32 noundef %63, i32 noundef 2, i32 noundef %65)
  %67 = load ptr, ptr %8, align 8
  %68 = load i32, ptr %67, align 4
  %69 = add i32 %68, 2
  store i32 %69, ptr %67, align 4
  call void @llvm.lifetime.end.p0(i64 2, ptr %14) #17
  br label %70

70:                                               ; preds = %54
  %71 = load i32, ptr %13, align 4
  %72 = add i32 %71, 1
  store i32 %72, ptr %13, align 4
  br label %49, !llvm.loop !12

73:                                               ; preds = %49
  store i32 0, ptr %13, align 4
  br label %74

74:                                               ; preds = %89, %73
  %75 = load i32, ptr %13, align 4
  %76 = load i8, ptr %12, align 1
  %77 = zext i8 %76 to i32
  %78 = icmp slt i32 %75, %77
  br i1 %78, label %79, label %92

79:                                               ; preds = %74
  %80 = load ptr, ptr %9, align 8
  %81 = load i32, ptr @hf_ieee802154_pending64, align 4
  %82 = load ptr, ptr %5, align 8
  %83 = load ptr, ptr %8, align 8
  %84 = load i32, ptr %83, align 4
  %85 = call ptr @proto_tree_add_item(ptr noundef %80, i32 noundef %81, ptr noundef %82, i32 noundef %84, i32 noundef 8, i32 noundef -2147483648)
  %86 = load ptr, ptr %8, align 8
  %87 = load i32, ptr %86, align 4
  %88 = add i32 %87, 8
  store i32 %88, ptr %86, align 4
  br label %89

89:                                               ; preds = %79
  %90 = load i32, ptr %13, align 4
  %91 = add i32 %90, 1
  store i32 %91, ptr %13, align 4
  br label %74, !llvm.loop !13

92:                                               ; preds = %74
  call void @llvm.lifetime.end.p0(i64 4, ptr %13) #17
  call void @llvm.lifetime.end.p0(i64 1, ptr %12) #17
  call void @llvm.lifetime.end.p0(i64 1, ptr %11) #17
  call void @llvm.lifetime.end.p0(i64 1, ptr %10) #17
  call void @llvm.lifetime.end.p0(i64 8, ptr %9) #17
  ret void
}