; Function Attrs: null_pointer_is_valid sspstrong uwtable
define hidden void @dissect_ieee802154_pendaddr(ptr noundef %0, ptr readnone captures(none) %1, ptr noundef %2, ptr noundef captures(none) %3) local_unnamed_addr #0 {
  %5 = load i32, ptr %3, align 4
  %6 = tail call zeroext i8 @tvb_get_uint8(ptr noundef %0, i32 noundef %5)
  %7 = and i8 %6, 7
  %8 = lshr i8 %6, 4
  %9 = and i8 %8, 7
  %10 = load i32, ptr %3, align 4
  %11 = zext nneg i8 %7 to i32
  %12 = shl nuw nsw i32 %11, 1
  %13 = or disjoint i32 %12, 1
  %14 = zext nneg i8 %9 to i32
  %15 = shl nuw nsw i32 %14, 3
  %16 = add nuw nsw i32 %13, %15
  %17 = load i32, ptr @ett_ieee802154_pendaddr, align 4
  %18 = tail call ptr (ptr, ptr, i32, i32, i32, ptr, ptr, ...) @proto_tree_add_subtree_format(ptr noundef %2, ptr noundef %0, i32 noundef %10, i32 noundef %16, i32 noundef %17, ptr noundef null, ptr noundef nonnull @.str.42, i32 noundef %11, i32 noundef %14)
  %19 = load i32, ptr %3, align 4
  %20 = add i32 %19, 1
  store i32 %20, ptr %3, align 4
  %.not = icmp eq i8 %7, 0
  br i1 %.not, label %.preheader, label %.lr.ph

.preheader:                                       ; preds = %.lr.ph, %4
  %21 = phi i32 [ %20, %4 ], [ %29, %.lr.ph ]
  %.not31 = icmp eq i8 %9, 0
  br i1 %.not31, label %._crit_edge, label %.lr.ph30

.lr.ph:                                           ; preds = %4, %.lr.ph
  %22 = phi i32 [ %29, %.lr.ph ], [ %20, %4 ]
  %.028 = phi i32 [ %30, %.lr.ph ], [ 0, %4 ]
  %23 = tail call zeroext i16 @tvb_get_letohs(ptr noundef %0, i32 noundef %22)
  %24 = load i32, ptr @hf_ieee802154_pending16, align 4
  %25 = load i32, ptr %3, align 4
  %26 = zext i16 %23 to i32
  %27 = tail call ptr @proto_tree_add_uint(ptr noundef %18, i32 noundef %24, ptr noundef %0, i32 noundef %25, i32 noundef 2, i32 noundef %26)
  %28 = load i32, ptr %3, align 4
  %29 = add i32 %28, 2
  store i32 %29, ptr %3, align 4
  %30 = add nuw nsw i32 %.028, 1
  %exitcond.not = icmp eq i32 %30, %11
  br i1 %exitcond.not, label %.preheader, label %.lr.ph, !llvm.loop !12

.lr.ph30:                                         ; preds = %.preheader, %.lr.ph30
  %31 = phi i32 [ %35, %.lr.ph30 ], [ %21, %.preheader ]
  %.129 = phi i32 [ %36, %.lr.ph30 ], [ 0, %.preheader ]
  %32 = load i32, ptr @hf_ieee802154_pending64, align 4
  %33 = tail call ptr @proto_tree_add_item(ptr noundef %18, i32 noundef %32, ptr noundef %0, i32 noundef %31, i32 noundef 8, i32 noundef -2147483648)
  %34 = load i32, ptr %3, align 4
  %35 = add i32 %34, 8
  store i32 %35, ptr %3, align 4
  %36 = add nuw nsw i32 %.129, 1
  %exitcond32.not = icmp eq i32 %36, %14
  br i1 %exitcond32.not, label %._crit_edge, label %.lr.ph30, !llvm.loop !13

._crit_edge:                                      ; preds = %.lr.ph30, %.preheader
  ret void
}